(lp0
(S'cppflags'
p1
ccopy_reg
_reconstructor
p2
(cino.utils
SpaceList
p3
c__builtin__
list
p4
(lp5
S'-mmcu=atmega2560'
p6
aS'-DF_CPU=16000000L'
p7
aS'-DARDUINO=100'
p8
aS'-I/usr/share/arduino/hardware/arduino/cores/arduino'
p9
aS'-ffunction-sections'
p10
aS'-fdata-sections'
p11
aS'-g'
p12
aS'-Os'
p13
aS'-w'
p14
aS'-I/usr/share/arduino/hardware/arduino/variants/mega'
p15
aS'-I/usr/share/arduino/libraries/Servo'
p16
aS'-Ilib/ros_lib'
p17
aS'-Ilib/ros_lib/tests'
p18
aS'-Ilib/ros_lib/ros_rl500xa'
p19
aS'-Ilib/ros_lib/std_msgs'
p20
aS'-Ilib/ros_lib/rosserial_msgs'
p21
aS'-Ilib/ros_lib/ros'
p22
aS'-Ilib/ros_lib/tf'
p23
aS'-Ilib/ros_lib/diagnostic_msgs'
p24
aS'-Ilib/ros_lib/nav_msgs'
p25
aS'-Ilib/ros_lib/sensor_msgs'
p26
aS'-Ilib/ros_lib/rosserial_arduino'
p27
aS'-Ilib/ros_lib/geometry_msgs'
p28
aS'-Ilib/ros_lib/tests/time_test'
p29
aS'-Ilib/ros_lib/tests/array_test'
p30
aS'-Ilib/ros_lib/tests/float64_test'
p31
aS'-I/usr/share/arduino/hardware/arduino/cores/arduino'
p32
atp33
Rp34
tp35
a(S'cxx'
p36
S'/usr/bin/avr-g++'
p37
tp38
a(S'arduino_libraries_dir'
p39
S'/usr/share/arduino/libraries'
p40
tp41
a(S'avrdude'
p42
S'/usr/share/arduino/hardware/tools/avrdude'
p43
tp44
a(S'ar'
p45
S'/usr/bin/avr-ar'
p46
tp47
a(S'names'
p48
(dp49
S'cpp'
p50
S'%s.cpp'
p51
sS'obj'
p52
S'%s.o'
p53
sS'lib'
p54
S'lib%s.a'
p55
sS'deps'
p56
S'%s.d'
p57
stp58
a(S'ldflags'
p59
g2
(g3
g4
(lp60
g6
aS'-Wl,-Os'
p61
aS'-Wl,--gc-sections'
p62
atp63
Rp64
tp65
a(S'arduino_lib_version'
p66
g2
(cino.environment
Version
p67
c__builtin__
tuple
p68
(I1
I0
I0
tp69
tp70
Rp71
tp72
a(S'objcopy'
p73
S'/usr/bin/avr-objcopy'
p74
tp75
a(S'board_models'
p76
cino.environment
BoardModels
p77
((lp78
(lp79
S'uno'
p80
a(dp81
S'build'
p82
(dp83
S'core'
p84
S'arduino'
p85
sS'mcu'
p86
S'atmega328p'
p87
sS'f_cpu'
p88
S'16000000L'
p89
sS'variant'
p90
S'standard'
p91
ssS'bootloader'
p92
(dp93
S'extended_fuses'
p94
S'0x05'
p95
sS'high_fuses'
p96
S'0xde'
p97
sS'low_fuses'
p98
S'0xff'
p99
sS'lock_bits'
p100
S'0x0F'
p101
sS'file'
p102
S'optiboot_atmega328.hex'
p103
sS'path'
p104
S'optiboot'
p105
sS'unlock_bits'
p106
S'0x3F'
p107
ssS'upload'
p108
(dp109
S'protocol'
p110
S'arduino'
p111
sS'maximum_size'
p112
S'32256'
p113
sS'speed'
p114
S'115200'
p115
ssS'name'
p116
S'Arduino Uno'
p117
saa(lp118
S'atmega328'
p119
a(dp120
S'build'
p121
(dp122
S'core'
p123
S'arduino'
p124
sS'mcu'
p125
S'atmega328p'
p126
sS'f_cpu'
p127
S'16000000L'
p128
sS'variant'
p129
S'standard'
p130
ssS'bootloader'
p131
(dp132
S'extended_fuses'
p133
S'0x05'
p134
sS'high_fuses'
p135
S'0xDA'
p136
sS'low_fuses'
p137
S'0xFF'
p138
sS'lock_bits'
p139
S'0x0F'
p140
sS'file'
p141
S'ATmegaBOOT_168_atmega328.hex'
p142
sS'path'
p143
S'atmega'
p144
sS'unlock_bits'
p145
S'0x3F'
p146
ssS'upload'
p147
(dp148
S'protocol'
p149
S'arduino'
p150
sS'maximum_size'
p151
S'30720'
p152
sS'speed'
p153
S'57600'
p154
ssS'name'
p155
S'Arduino Duemilanove w/ ATmega328'
p156
saa(lp157
S'diecimila'
p158
a(dp159
S'build'
p160
(dp161
S'core'
p162
S'arduino'
p163
sS'mcu'
p164
S'atmega168'
p165
sS'f_cpu'
p166
S'16000000L'
p167
sS'variant'
p168
S'standard'
p169
ssS'bootloader'
p170
(dp171
S'extended_fuses'
p172
S'0x00'
p173
sS'high_fuses'
p174
S'0xdd'
p175
sS'low_fuses'
p176
S'0xff'
p177
sS'lock_bits'
p178
S'0x0F'
p179
sS'file'
p180
S'ATmegaBOOT_168_diecimila.hex'
p181
sS'path'
p182
S'atmega'
p183
sS'unlock_bits'
p184
S'0x3F'
p185
ssS'upload'
p186
(dp187
S'protocol'
p188
S'arduino'
p189
sS'maximum_size'
p190
S'14336'
p191
sS'speed'
p192
S'19200'
p193
ssS'name'
p194
S'Arduino Diecimila or Duemilanove w/ ATmega168'
p195
saa(lp196
S'nano328'
p197
a(dp198
S'build'
p199
(dp200
S'core'
p201
S'arduino'
p202
sS'mcu'
p203
S'atmega328p'
p204
sS'f_cpu'
p205
S'16000000L'
p206
sS'variant'
p207
S'eightanaloginputs'
p208
ssS'bootloader'
p209
(dp210
S'extended_fuses'
p211
S'0x05'
p212
sS'high_fuses'
p213
S'0xDA'
p214
sS'low_fuses'
p215
S'0xFF'
p216
sS'lock_bits'
p217
S'0x0F'
p218
sS'file'
p219
S'ATmegaBOOT_168_atmega328.hex'
p220
sS'path'
p221
S'atmega'
p222
sS'unlock_bits'
p223
S'0x3F'
p224
ssS'upload'
p225
(dp226
S'protocol'
p227
S'arduino'
p228
sS'maximum_size'
p229
S'30720'
p230
sS'speed'
p231
S'57600'
p232
ssS'name'
p233
S'Arduino Nano w/ ATmega328'
p234
saa(lp235
S'nano'
p236
a(dp237
S'build'
p238
(dp239
S'core'
p240
S'arduino'
p241
sS'mcu'
p242
S'atmega168'
p243
sS'f_cpu'
p244
S'16000000L'
p245
sS'variant'
p246
S'eightanaloginputs'
p247
ssS'bootloader'
p248
(dp249
S'extended_fuses'
p250
S'0x00'
p251
sS'high_fuses'
p252
S'0xdd'
p253
sS'low_fuses'
p254
S'0xff'
p255
sS'lock_bits'
p256
S'0x0F'
p257
sS'file'
p258
S'ATmegaBOOT_168_diecimila.hex'
p259
sS'path'
p260
S'atmega'
p261
sS'unlock_bits'
p262
S'0x3F'
p263
ssS'upload'
p264
(dp265
S'protocol'
p266
S'arduino'
p267
sS'maximum_size'
p268
S'14336'
p269
sS'speed'
p270
S'19200'
p271
ssS'name'
p272
S'Arduino Nano w/ ATmega168'
p273
saa(lp274
S'mega2560'
p275
a(dp276
S'build'
p277
(dp278
S'core'
p279
S'arduino'
p280
sS'mcu'
p281
S'atmega2560'
p282
sS'f_cpu'
p283
S'16000000L'
p284
sS'variant'
p285
S'mega'
p286
ssS'bootloader'
p287
(dp288
S'extended_fuses'
p289
S'0xFD'
p290
sS'high_fuses'
p291
S'0xD8'
p292
sS'low_fuses'
p293
S'0xFF'
p294
sS'lock_bits'
p295
S'0x0F'
p296
sS'file'
p297
S'stk500boot_v2_mega2560.hex'
p298
sS'path'
p299
S'stk500v2'
p300
sS'unlock_bits'
p301
S'0x3F'
p302
ssS'upload'
p303
(dp304
S'protocol'
p305
S'stk500v2'
p306
sS'maximum_size'
p307
S'258048'
p308
sS'speed'
p309
S'115200'
p310
ssS'name'
p311
S'Arduino Mega 2560 or Mega ADK'
p312
saa(lp313
S'mega'
p314
a(dp315
S'build'
p316
(dp317
S'core'
p318
S'arduino'
p319
sS'mcu'
p320
S'atmega1280'
p321
sS'f_cpu'
p322
S'16000000L'
p323
sS'variant'
p324
S'mega'
p325
ssS'bootloader'
p326
(dp327
S'extended_fuses'
p328
S'0xF5'
p329
sS'high_fuses'
p330
S'0xDA'
p331
sS'low_fuses'
p332
S'0xFF'
p333
sS'lock_bits'
p334
S'0x0F'
p335
sS'file'
p336
S'ATmegaBOOT_168_atmega1280.hex'
p337
sS'path'
p338
S'atmega'
p339
sS'unlock_bits'
p340
S'0x3F'
p341
ssS'upload'
p342
(dp343
S'protocol'
p344
S'arduino'
p345
sS'maximum_size'
p346
S'126976'
p347
sS'speed'
p348
S'57600'
p349
ssS'name'
p350
S'Arduino Mega (ATmega1280)'
p351
saa(lp352
S'mini328'
p353
a(dp354
S'build'
p355
(dp356
S'core'
p357
S'arduino'
p358
sS'mcu'
p359
S'atmega328p'
p360
sS'f_cpu'
p361
S'16000000L'
p362
sS'variant'
p363
S'eightanaloginputs'
p364
ssS'bootloader'
p365
(dp366
S'extended_fuses'
p367
S'0x05'
p368
sS'high_fuses'
p369
S'0xd8'
p370
sS'low_fuses'
p371
S'0xff'
p372
sS'lock_bits'
p373
S'0x0F'
p374
sS'file'
p375
S'optiboot_atmega328-Mini.hex'
p376
sS'path'
p377
S'optiboot'
p378
sS'unlock_bits'
p379
S'0x3F'
p380
ssS'upload'
p381
(dp382
S'protocol'
p383
S'stk500'
p384
sS'maximum_size'
p385
S'28672'
p386
sS'speed'
p387
S'115200'
p388
ssS'name'
p389
S'Arduino Mini w/ ATmega328'
p390
saa(lp391
S'mini'
p392
a(dp393
S'build'
p394
(dp395
S'core'
p396
S'arduino'
p397
sS'mcu'
p398
S'atmega168'
p399
sS'f_cpu'
p400
S'16000000L'
p401
sS'variant'
p402
S'eightanaloginputs'
p403
ssS'bootloader'
p404
(dp405
S'extended_fuses'
p406
S'0x00'
p407
sS'high_fuses'
p408
S'0xdd'
p409
sS'low_fuses'
p410
S'0xff'
p411
sS'lock_bits'
p412
S'0x0F'
p413
sS'file'
p414
S'ATmegaBOOT_168_ng.hex'
p415
sS'path'
p416
S'atmega'
p417
sS'unlock_bits'
p418
S'0x3F'
p419
ssS'upload'
p420
(dp421
S'protocol'
p422
S'arduino'
p423
sS'maximum_size'
p424
S'14336'
p425
sS'speed'
p426
S'19200'
p427
ssS'name'
p428
S'Arduino Mini w/ ATmega168'
p429
saa(lp430
S'ethernet'
p431
a(dp432
S'build'
p433
(dp434
S'variant'
p435
S'standard'
p436
sS'mcu'
p437
S'atmega328p'
p438
sS'f_cpu'
p439
S'16000000L'
p440
sS'core'
p441
S'arduino'
p442
ssS'bootloader'
p443
(dp444
S'extended_fuses'
p445
S'0x05'
p446
sS'high_fuses'
p447
S'0xde'
p448
sS'low_fuses'
p449
S'0xff'
p450
sS'lock_bits'
p451
S'0x0F'
p452
sS'file'
p453
S'optiboot_atmega328.hex'
p454
sS'path'
p455
S'optiboot'
p456
sS'unlock_bits'
p457
S'0x3F'
p458
ssS'upload'
p459
(dp460
S'protocol'
p461
S'arduino'
p462
sS'maximum_size'
p463
S'32256'
p464
sS'speed'
p465
S'115200'
p466
ssS'name'
p467
S'Arduino Ethernet'
p468
saa(lp469
S'fio'
p470
a(dp471
S'build'
p472
(dp473
S'core'
p474
S'arduino'
p475
sS'mcu'
p476
S'atmega328p'
p477
sS'f_cpu'
p478
S'8000000L'
p479
sS'variant'
p480
S'eightanaloginputs'
p481
ssS'bootloader'
p482
(dp483
S'extended_fuses'
p484
S'0x05'
p485
sS'high_fuses'
p486
S'0xDA'
p487
sS'low_fuses'
p488
S'0xFF'
p489
sS'lock_bits'
p490
S'0x0F'
p491
sS'file'
p492
S'ATmegaBOOT_168_atmega328_pro_8MHz.hex'
p493
sS'path'
p494
S'arduino:atmega'
p495
sS'unlock_bits'
p496
S'0x3F'
p497
ssS'upload'
p498
(dp499
S'protocol'
p500
S'arduino'
p501
sS'maximum_size'
p502
S'30720'
p503
sS'speed'
p504
S'57600'
p505
ssS'name'
p506
S'Arduino Fio'
p507
saa(lp508
S'bt328'
p509
a(dp510
S'build'
p511
(dp512
S'core'
p513
S'arduino'
p514
sS'mcu'
p515
S'atmega328p'
p516
sS'f_cpu'
p517
S'16000000L'
p518
sS'variant'
p519
S'eightanaloginputs'
p520
ssS'bootloader'
p521
(dp522
S'extended_fuses'
p523
S'0x05'
p524
sS'high_fuses'
p525
S'0xd8'
p526
sS'low_fuses'
p527
S'0xff'
p528
sS'lock_bits'
p529
S'0x0F'
p530
sS'file'
p531
S'ATmegaBOOT_168_atmega328_bt.hex'
p532
sS'path'
p533
S'bt'
p534
sS'unlock_bits'
p535
S'0x3F'
p536
ssS'upload'
p537
(dp538
S'protocol'
p539
S'arduino'
p540
sS'maximum_size'
p541
S'28672'
p542
sS'speed'
p543
S'19200'
p544
sS'disable_flushing'
p545
S'true'
p546
ssS'name'
p547
S'Arduino BT w/ ATmega328'
p548
saa(lp549
S'bt'
p550
a(dp551
S'build'
p552
(dp553
S'core'
p554
S'arduino'
p555
sS'mcu'
p556
S'atmega168'
p557
sS'f_cpu'
p558
S'16000000L'
p559
sS'variant'
p560
S'eightanaloginputs'
p561
ssS'bootloader'
p562
(dp563
S'extended_fuses'
p564
S'0x00'
p565
sS'high_fuses'
p566
S'0xdd'
p567
sS'low_fuses'
p568
S'0xff'
p569
sS'lock_bits'
p570
S'0x0F'
p571
sS'file'
p572
S'ATmegaBOOT_168.hex'
p573
sS'path'
p574
S'bt'
p575
sS'unlock_bits'
p576
S'0x3F'
p577
ssS'upload'
p578
(dp579
S'protocol'
p580
S'arduino'
p581
sS'maximum_size'
p582
S'14336'
p583
sS'speed'
p584
S'19200'
p585
sS'disable_flushing'
p586
S'true'
p587
ssS'name'
p588
S'Arduino BT w/ ATmega168'
p589
saa(lp590
S'lilypad328'
p591
a(dp592
S'build'
p593
(dp594
S'core'
p595
S'arduino'
p596
sS'mcu'
p597
S'atmega328p'
p598
sS'f_cpu'
p599
S'8000000L'
p600
sS'variant'
p601
S'standard'
p602
ssS'bootloader'
p603
(dp604
S'extended_fuses'
p605
S'0x05'
p606
sS'high_fuses'
p607
S'0xDA'
p608
sS'low_fuses'
p609
S'0xFF'
p610
sS'lock_bits'
p611
S'0x0F'
p612
sS'file'
p613
S'ATmegaBOOT_168_atmega328_pro_8MHz.hex'
p614
sS'path'
p615
S'atmega'
p616
sS'unlock_bits'
p617
S'0x3F'
p618
ssS'upload'
p619
(dp620
S'protocol'
p621
S'arduino'
p622
sS'maximum_size'
p623
S'30720'
p624
sS'speed'
p625
S'57600'
p626
ssS'name'
p627
S'LilyPad Arduino w/ ATmega328'
p628
saa(lp629
S'lilypad'
p630
a(dp631
S'build'
p632
(dp633
S'core'
p634
S'arduino'
p635
sS'mcu'
p636
S'atmega168'
p637
sS'f_cpu'
p638
S'8000000L'
p639
sS'variant'
p640
S'standard'
p641
ssS'bootloader'
p642
(dp643
S'extended_fuses'
p644
S'0x00'
p645
sS'high_fuses'
p646
S'0xdd'
p647
sS'low_fuses'
p648
S'0xe2'
p649
sS'lock_bits'
p650
S'0x0F'
p651
sS'file'
p652
S'LilyPadBOOT_168.hex'
p653
sS'path'
p654
S'lilypad'
p655
sS'unlock_bits'
p656
S'0x3F'
p657
ssS'upload'
p658
(dp659
S'protocol'
p660
S'arduino'
p661
sS'maximum_size'
p662
S'14336'
p663
sS'speed'
p664
S'19200'
p665
ssS'name'
p666
S'LilyPad Arduino w/ ATmega168'
p667
saa(lp668
S'pro5v328'
p669
a(dp670
S'build'
p671
(dp672
S'core'
p673
S'arduino'
p674
sS'mcu'
p675
S'atmega328p'
p676
sS'f_cpu'
p677
S'16000000L'
p678
sS'variant'
p679
S'standard'
p680
ssS'bootloader'
p681
(dp682
S'extended_fuses'
p683
S'0x05'
p684
sS'high_fuses'
p685
S'0xDA'
p686
sS'low_fuses'
p687
S'0xFF'
p688
sS'lock_bits'
p689
S'0x0F'
p690
sS'file'
p691
S'ATmegaBOOT_168_atmega328.hex'
p692
sS'path'
p693
S'atmega'
p694
sS'unlock_bits'
p695
S'0x3F'
p696
ssS'upload'
p697
(dp698
S'protocol'
p699
S'arduino'
p700
sS'maximum_size'
p701
S'30720'
p702
sS'speed'
p703
S'57600'
p704
ssS'name'
p705
S'Arduino Pro or Pro Mini (5V, 16 MHz) w/ ATmega328'
p706
saa(lp707
S'pro5v'
p708
a(dp709
S'build'
p710
(dp711
S'core'
p712
S'arduino'
p713
sS'mcu'
p714
S'atmega168'
p715
sS'f_cpu'
p716
S'16000000L'
p717
sS'variant'
p718
S'standard'
p719
ssS'bootloader'
p720
(dp721
S'extended_fuses'
p722
S'0x00'
p723
sS'high_fuses'
p724
S'0xdd'
p725
sS'low_fuses'
p726
S'0xff'
p727
sS'lock_bits'
p728
S'0x0F'
p729
sS'file'
p730
S'ATmegaBOOT_168_diecimila.hex'
p731
sS'path'
p732
S'atmega'
p733
sS'unlock_bits'
p734
S'0x3F'
p735
ssS'upload'
p736
(dp737
S'protocol'
p738
S'arduino'
p739
sS'maximum_size'
p740
S'14336'
p741
sS'speed'
p742
S'19200'
p743
ssS'name'
p744
S'Arduino Pro or Pro Mini (5V, 16 MHz) w/ ATmega168'
p745
saa(lp746
S'pro328'
p747
a(dp748
S'build'
p749
(dp750
S'core'
p751
S'arduino'
p752
sS'mcu'
p753
S'atmega328p'
p754
sS'f_cpu'
p755
S'8000000L'
p756
sS'variant'
p757
S'standard'
p758
ssS'bootloader'
p759
(dp760
S'extended_fuses'
p761
S'0x05'
p762
sS'high_fuses'
p763
S'0xDA'
p764
sS'low_fuses'
p765
S'0xFF'
p766
sS'lock_bits'
p767
S'0x0F'
p768
sS'file'
p769
S'ATmegaBOOT_168_atmega328_pro_8MHz.hex'
p770
sS'path'
p771
S'atmega'
p772
sS'unlock_bits'
p773
S'0x3F'
p774
ssS'upload'
p775
(dp776
S'protocol'
p777
S'arduino'
p778
sS'maximum_size'
p779
S'30720'
p780
sS'speed'
p781
S'57600'
p782
ssS'name'
p783
S'Arduino Pro or Pro Mini (3.3V, 8 MHz) w/ ATmega328'
p784
saa(lp785
S'pro'
p786
a(dp787
S'build'
p788
(dp789
S'core'
p790
S'arduino'
p791
sS'mcu'
p792
S'atmega168'
p793
sS'f_cpu'
p794
S'8000000L'
p795
sS'variant'
p796
S'standard'
p797
ssS'bootloader'
p798
(dp799
S'extended_fuses'
p800
S'0x00'
p801
sS'high_fuses'
p802
S'0xdd'
p803
sS'low_fuses'
p804
S'0xc6'
p805
sS'lock_bits'
p806
S'0x0F'
p807
sS'file'
p808
S'ATmegaBOOT_168_pro_8MHz.hex'
p809
sS'path'
p810
S'atmega'
p811
sS'unlock_bits'
p812
S'0x3F'
p813
ssS'upload'
p814
(dp815
S'protocol'
p816
S'arduino'
p817
sS'maximum_size'
p818
S'14336'
p819
sS'speed'
p820
S'19200'
p821
ssS'name'
p822
S'Arduino Pro or Pro Mini (3.3V, 8 MHz) w/ ATmega168'
p823
saa(lp824
S'atmega168'
p825
a(dp826
S'build'
p827
(dp828
S'core'
p829
S'arduino'
p830
sS'mcu'
p831
S'atmega168'
p832
sS'f_cpu'
p833
S'16000000L'
p834
sS'variant'
p835
S'standard'
p836
ssS'bootloader'
p837
(dp838
S'extended_fuses'
p839
S'0x00'
p840
sS'high_fuses'
p841
S'0xdd'
p842
sS'low_fuses'
p843
S'0xff'
p844
sS'lock_bits'
p845
S'0x0F'
p846
sS'file'
p847
S'ATmegaBOOT_168_ng.hex'
p848
sS'path'
p849
S'atmega'
p850
sS'unlock_bits'
p851
S'0x3F'
p852
ssS'upload'
p853
(dp854
S'protocol'
p855
S'arduino'
p856
sS'maximum_size'
p857
S'14336'
p858
sS'speed'
p859
S'19200'
p860
ssS'name'
p861
S'Arduino NG or older w/ ATmega168'
p862
saa(lp863
S'atmega8'
p864
a(dp865
S'build'
p866
(dp867
S'core'
p868
S'arduino'
p869
sS'mcu'
p870
S'atmega8'
p871
sS'f_cpu'
p872
S'16000000L'
p873
sS'variant'
p874
S'standard'
p875
ssS'bootloader'
p876
(dp877
S'high_fuses'
p878
S'0xca'
p879
sS'low_fuses'
p880
S'0xdf'
p881
sS'lock_bits'
p882
S'0x0F'
p883
sS'file'
p884
S'ATmegaBOOT.hex'
p885
sS'path'
p886
S'atmega8'
p887
sS'unlock_bits'
p888
S'0x3F'
p889
ssS'upload'
p890
(dp891
S'protocol'
p892
S'arduino'
p893
sS'maximum_size'
p894
S'7168'
p895
sS'speed'
p896
S'19200'
p897
ssS'name'
p898
S'Arduino NG or older w/ ATmega8'
p899
saatp900
Rp901
(dp902
S'default'
p903
S'uno'
p904
sbtp905
a(S'used_libs'
p906
(lp907
S'/usr/share/arduino/libraries/Servo'
p908
aS'lib/ros_lib'
p909
aS'/usr/share/arduino/hardware/arduino/cores/arduino'
p910
atp911
a(S'make'
p912
S'/usr/bin/make'
p913
tp914
a(S'build_dir'
p915
S'.build/mega2560'
p916
tp917
a(S'cc'
p918
S'/usr/bin/avr-gcc'
p919
tp920
a(S'cflags'
p921
g2
(g3
g4
(lp922
tp923
Rp924
tp925
a(S'cxxflags'
p926
g2
(g3
g4
(lp927
S'-fno-exceptions'
p928
atp929
Rp930
tp931
a(S'arduino_variants_dir'
p932
S'/usr/share/arduino/hardware/arduino/variants'
p933
tp934
a(S'stty'
p935
S'/bin/stty'
p936
tp937
a(S'version.txt'
p938
S'/usr/share/arduino/lib/version.txt'
p939
tp940
a(S'arduino_core_dir'
p941
g910
tp942
a(S'boards.txt'
p943
S'/usr/share/arduino/hardware/arduino/boards.txt'
p944
tp945
a(S'avrdude.conf'
p946
S'/usr/share/arduino/hardware/tools/avrdude.conf'
p947
tp948
a(S'deps'
p949
g2
(g3
g4
(lp950
S'.build/mega2560/src/dependencies.d'
p951
aS'.build/mega2560/arduino/dependencies.d'
p952
aS'.build/mega2560/Servo/dependencies.d'
p953
aS'.build/mega2560/ros_lib/dependencies.d'
p954
atp955
Rp956
tp957
a.