(lp0
(S'cppflags'
p1
ccopy_reg
_reconstructor
p2
(cino.utils
SpaceList
p3
c__builtin__
list
p4
(lp5
S'-mmcu=atmega2560'
p6
aS'-DF_CPU=16000000L'
p7
aS'-DARDUINO=100'
p8
aS'-I/usr/share/arduino/hardware/arduino/cores/arduino'
p9
aS'-ffunction-sections'
p10
aS'-fdata-sections'
p11
aS'-g'
p12
aS'-Os'
p13
aS'-w'
p14
aS'-I/usr/share/arduino/hardware/arduino/variants/mega'
p15
aS'-I/usr/share/arduino/libraries/Servo'
p16
aS'-Ilib/ros_lib'
p17
aS'-Ilib/ros_lib/diagnostic_msgs'
p18
aS'-Ilib/ros_lib/rosserial_arduino'
p19
aS'-Ilib/ros_lib/std_msgs'
p20
aS'-Ilib/ros_lib/rosserial_msgs'
p21
aS'-Ilib/ros_lib/ros_rl500xa'
p22
aS'-Ilib/ros_lib/tf'
p23
aS'-Ilib/ros_lib/tests'
p24
aS'-Ilib/ros_lib/nav_msgs'
p25
aS'-Ilib/ros_lib/geometry_msgs'
p26
aS'-Ilib/ros_lib/sensor_msgs'
p27
aS'-Ilib/ros_lib/ros'
p28
aS'-Ilib/ros_lib/tests/float64_test'
p29
aS'-Ilib/ros_lib/tests/time_test'
p30
aS'-Ilib/ros_lib/tests/array_test'
p31
aS'-I/usr/share/arduino/hardware/arduino/cores/arduino'
p32
atp33
Rp34
tp35
a(S'cxx'
p36
S'/usr/bin/avr-g++'
p37
tp38
a(S'build_dir'
p39
S'.build/mega2560'
p40
tp41
a(S'avrdude'
p42
S'/usr/share/arduino/hardware/tools/avrdude'
p43
tp44
a(S'ar'
p45
S'/usr/bin/avr-ar'
p46
tp47
a(S'names'
p48
(dp49
S'cpp'
p50
S'%s.cpp'
p51
sS'obj'
p52
S'%s.o'
p53
sS'deps'
p54
S'%s.d'
p55
sS'lib'
p56
S'lib%s.a'
p57
stp58
a(S'ldflags'
p59
g2
(g3
g4
(lp60
g6
aS'-Wl,-Os'
p61
aS'-Wl,--gc-sections'
p62
atp63
Rp64
tp65
a(S'arduino_lib_version'
p66
g2
(cino.environment
Version
p67
c__builtin__
tuple
p68
(I1
I0
I0
tp69
tp70
Rp71
tp72
a(S'objcopy'
p73
S'/usr/bin/avr-objcopy'
p74
tp75
a(S'board_models'
p76
cino.environment
BoardModels
p77
((lp78
(lp79
S'uno'
p80
a(dp81
S'bootloader'
p82
(dp83
S'extended_fuses'
p84
S'0x05'
p85
sS'high_fuses'
p86
S'0xde'
p87
sS'low_fuses'
p88
S'0xff'
p89
sS'lock_bits'
p90
S'0x0F'
p91
sS'file'
p92
S'optiboot_atmega328.hex'
p93
sS'path'
p94
S'optiboot'
p95
sS'unlock_bits'
p96
S'0x3F'
p97
ssS'upload'
p98
(dp99
S'speed'
p100
S'115200'
p101
sS'maximum_size'
p102
S'32256'
p103
sS'protocol'
p104
S'arduino'
p105
ssS'name'
p106
S'Arduino Uno'
p107
sS'build'
p108
(dp109
S'core'
p110
S'arduino'
p111
sS'mcu'
p112
S'atmega328p'
p113
sS'f_cpu'
p114
S'16000000L'
p115
sS'variant'
p116
S'standard'
p117
ssaa(lp118
S'atmega328'
p119
a(dp120
S'bootloader'
p121
(dp122
S'extended_fuses'
p123
S'0x05'
p124
sS'high_fuses'
p125
S'0xDA'
p126
sS'low_fuses'
p127
S'0xFF'
p128
sS'lock_bits'
p129
S'0x0F'
p130
sS'file'
p131
S'ATmegaBOOT_168_atmega328.hex'
p132
sS'path'
p133
S'atmega'
p134
sS'unlock_bits'
p135
S'0x3F'
p136
ssS'upload'
p137
(dp138
S'speed'
p139
S'57600'
p140
sS'maximum_size'
p141
S'30720'
p142
sS'protocol'
p143
S'arduino'
p144
ssS'name'
p145
S'Arduino Duemilanove w/ ATmega328'
p146
sS'build'
p147
(dp148
S'core'
p149
S'arduino'
p150
sS'mcu'
p151
S'atmega328p'
p152
sS'f_cpu'
p153
S'16000000L'
p154
sS'variant'
p155
S'standard'
p156
ssaa(lp157
S'diecimila'
p158
a(dp159
S'bootloader'
p160
(dp161
S'extended_fuses'
p162
S'0x00'
p163
sS'high_fuses'
p164
S'0xdd'
p165
sS'low_fuses'
p166
S'0xff'
p167
sS'lock_bits'
p168
S'0x0F'
p169
sS'file'
p170
S'ATmegaBOOT_168_diecimila.hex'
p171
sS'path'
p172
S'atmega'
p173
sS'unlock_bits'
p174
S'0x3F'
p175
ssS'upload'
p176
(dp177
S'speed'
p178
S'19200'
p179
sS'maximum_size'
p180
S'14336'
p181
sS'protocol'
p182
S'arduino'
p183
ssS'name'
p184
S'Arduino Diecimila or Duemilanove w/ ATmega168'
p185
sS'build'
p186
(dp187
S'core'
p188
S'arduino'
p189
sS'mcu'
p190
S'atmega168'
p191
sS'f_cpu'
p192
S'16000000L'
p193
sS'variant'
p194
S'standard'
p195
ssaa(lp196
S'nano328'
p197
a(dp198
S'bootloader'
p199
(dp200
S'extended_fuses'
p201
S'0x05'
p202
sS'high_fuses'
p203
S'0xDA'
p204
sS'low_fuses'
p205
S'0xFF'
p206
sS'lock_bits'
p207
S'0x0F'
p208
sS'file'
p209
S'ATmegaBOOT_168_atmega328.hex'
p210
sS'path'
p211
S'atmega'
p212
sS'unlock_bits'
p213
S'0x3F'
p214
ssS'upload'
p215
(dp216
S'speed'
p217
S'57600'
p218
sS'maximum_size'
p219
S'30720'
p220
sS'protocol'
p221
S'arduino'
p222
ssS'name'
p223
S'Arduino Nano w/ ATmega328'
p224
sS'build'
p225
(dp226
S'core'
p227
S'arduino'
p228
sS'mcu'
p229
S'atmega328p'
p230
sS'f_cpu'
p231
S'16000000L'
p232
sS'variant'
p233
S'eightanaloginputs'
p234
ssaa(lp235
S'nano'
p236
a(dp237
S'bootloader'
p238
(dp239
S'extended_fuses'
p240
S'0x00'
p241
sS'high_fuses'
p242
S'0xdd'
p243
sS'low_fuses'
p244
S'0xff'
p245
sS'lock_bits'
p246
S'0x0F'
p247
sS'file'
p248
S'ATmegaBOOT_168_diecimila.hex'
p249
sS'path'
p250
S'atmega'
p251
sS'unlock_bits'
p252
S'0x3F'
p253
ssS'upload'
p254
(dp255
S'speed'
p256
S'19200'
p257
sS'maximum_size'
p258
S'14336'
p259
sS'protocol'
p260
S'arduino'
p261
ssS'name'
p262
S'Arduino Nano w/ ATmega168'
p263
sS'build'
p264
(dp265
S'core'
p266
S'arduino'
p267
sS'mcu'
p268
S'atmega168'
p269
sS'f_cpu'
p270
S'16000000L'
p271
sS'variant'
p272
S'eightanaloginputs'
p273
ssaa(lp274
S'mega2560'
p275
a(dp276
S'bootloader'
p277
(dp278
S'extended_fuses'
p279
S'0xFD'
p280
sS'high_fuses'
p281
S'0xD8'
p282
sS'low_fuses'
p283
S'0xFF'
p284
sS'lock_bits'
p285
S'0x0F'
p286
sS'file'
p287
S'stk500boot_v2_mega2560.hex'
p288
sS'path'
p289
S'stk500v2'
p290
sS'unlock_bits'
p291
S'0x3F'
p292
ssS'upload'
p293
(dp294
S'speed'
p295
S'115200'
p296
sS'maximum_size'
p297
S'258048'
p298
sS'protocol'
p299
S'stk500v2'
p300
ssS'name'
p301
S'Arduino Mega 2560 or Mega ADK'
p302
sS'build'
p303
(dp304
S'core'
p305
S'arduino'
p306
sS'mcu'
p307
S'atmega2560'
p308
sS'f_cpu'
p309
S'16000000L'
p310
sS'variant'
p311
S'mega'
p312
ssaa(lp313
S'mega'
p314
a(dp315
S'bootloader'
p316
(dp317
S'extended_fuses'
p318
S'0xF5'
p319
sS'high_fuses'
p320
S'0xDA'
p321
sS'low_fuses'
p322
S'0xFF'
p323
sS'lock_bits'
p324
S'0x0F'
p325
sS'file'
p326
S'ATmegaBOOT_168_atmega1280.hex'
p327
sS'path'
p328
S'atmega'
p329
sS'unlock_bits'
p330
S'0x3F'
p331
ssS'upload'
p332
(dp333
S'speed'
p334
S'57600'
p335
sS'maximum_size'
p336
S'126976'
p337
sS'protocol'
p338
S'arduino'
p339
ssS'name'
p340
S'Arduino Mega (ATmega1280)'
p341
sS'build'
p342
(dp343
S'core'
p344
S'arduino'
p345
sS'mcu'
p346
S'atmega1280'
p347
sS'f_cpu'
p348
S'16000000L'
p349
sS'variant'
p350
S'mega'
p351
ssaa(lp352
S'mini328'
p353
a(dp354
S'bootloader'
p355
(dp356
S'extended_fuses'
p357
S'0x05'
p358
sS'high_fuses'
p359
S'0xd8'
p360
sS'low_fuses'
p361
S'0xff'
p362
sS'lock_bits'
p363
S'0x0F'
p364
sS'file'
p365
S'optiboot_atmega328-Mini.hex'
p366
sS'path'
p367
S'optiboot'
p368
sS'unlock_bits'
p369
S'0x3F'
p370
ssS'upload'
p371
(dp372
S'speed'
p373
S'115200'
p374
sS'maximum_size'
p375
S'28672'
p376
sS'protocol'
p377
S'stk500'
p378
ssS'name'
p379
S'Arduino Mini w/ ATmega328'
p380
sS'build'
p381
(dp382
S'core'
p383
S'arduino'
p384
sS'mcu'
p385
S'atmega328p'
p386
sS'f_cpu'
p387
S'16000000L'
p388
sS'variant'
p389
S'eightanaloginputs'
p390
ssaa(lp391
S'mini'
p392
a(dp393
S'bootloader'
p394
(dp395
S'extended_fuses'
p396
S'0x00'
p397
sS'high_fuses'
p398
S'0xdd'
p399
sS'low_fuses'
p400
S'0xff'
p401
sS'lock_bits'
p402
S'0x0F'
p403
sS'file'
p404
S'ATmegaBOOT_168_ng.hex'
p405
sS'path'
p406
S'atmega'
p407
sS'unlock_bits'
p408
S'0x3F'
p409
ssS'upload'
p410
(dp411
S'speed'
p412
S'19200'
p413
sS'maximum_size'
p414
S'14336'
p415
sS'protocol'
p416
S'arduino'
p417
ssS'name'
p418
S'Arduino Mini w/ ATmega168'
p419
sS'build'
p420
(dp421
S'core'
p422
S'arduino'
p423
sS'mcu'
p424
S'atmega168'
p425
sS'f_cpu'
p426
S'16000000L'
p427
sS'variant'
p428
S'eightanaloginputs'
p429
ssaa(lp430
S'ethernet'
p431
a(dp432
S'bootloader'
p433
(dp434
S'extended_fuses'
p435
S'0x05'
p436
sS'high_fuses'
p437
S'0xde'
p438
sS'low_fuses'
p439
S'0xff'
p440
sS'lock_bits'
p441
S'0x0F'
p442
sS'file'
p443
S'optiboot_atmega328.hex'
p444
sS'path'
p445
S'optiboot'
p446
sS'unlock_bits'
p447
S'0x3F'
p448
ssS'upload'
p449
(dp450
S'speed'
p451
S'115200'
p452
sS'maximum_size'
p453
S'32256'
p454
sS'protocol'
p455
S'arduino'
p456
ssS'name'
p457
S'Arduino Ethernet'
p458
sS'build'
p459
(dp460
S'f_cpu'
p461
S'16000000L'
p462
sS'mcu'
p463
S'atmega328p'
p464
sS'variant'
p465
S'standard'
p466
sS'core'
p467
S'arduino'
p468
ssaa(lp469
S'fio'
p470
a(dp471
S'bootloader'
p472
(dp473
S'extended_fuses'
p474
S'0x05'
p475
sS'high_fuses'
p476
S'0xDA'
p477
sS'low_fuses'
p478
S'0xFF'
p479
sS'lock_bits'
p480
S'0x0F'
p481
sS'file'
p482
S'ATmegaBOOT_168_atmega328_pro_8MHz.hex'
p483
sS'path'
p484
S'arduino:atmega'
p485
sS'unlock_bits'
p486
S'0x3F'
p487
ssS'upload'
p488
(dp489
S'speed'
p490
S'57600'
p491
sS'maximum_size'
p492
S'30720'
p493
sS'protocol'
p494
S'arduino'
p495
ssS'name'
p496
S'Arduino Fio'
p497
sS'build'
p498
(dp499
S'core'
p500
S'arduino'
p501
sS'mcu'
p502
S'atmega328p'
p503
sS'f_cpu'
p504
S'8000000L'
p505
sS'variant'
p506
S'eightanaloginputs'
p507
ssaa(lp508
S'bt328'
p509
a(dp510
S'bootloader'
p511
(dp512
S'extended_fuses'
p513
S'0x05'
p514
sS'high_fuses'
p515
S'0xd8'
p516
sS'low_fuses'
p517
S'0xff'
p518
sS'lock_bits'
p519
S'0x0F'
p520
sS'file'
p521
S'ATmegaBOOT_168_atmega328_bt.hex'
p522
sS'path'
p523
S'bt'
p524
sS'unlock_bits'
p525
S'0x3F'
p526
ssS'upload'
p527
(dp528
S'speed'
p529
S'19200'
p530
sS'maximum_size'
p531
S'28672'
p532
sS'protocol'
p533
S'arduino'
p534
sS'disable_flushing'
p535
S'true'
p536
ssS'name'
p537
S'Arduino BT w/ ATmega328'
p538
sS'build'
p539
(dp540
S'core'
p541
S'arduino'
p542
sS'mcu'
p543
S'atmega328p'
p544
sS'f_cpu'
p545
S'16000000L'
p546
sS'variant'
p547
S'eightanaloginputs'
p548
ssaa(lp549
S'bt'
p550
a(dp551
S'bootloader'
p552
(dp553
S'extended_fuses'
p554
S'0x00'
p555
sS'high_fuses'
p556
S'0xdd'
p557
sS'low_fuses'
p558
S'0xff'
p559
sS'lock_bits'
p560
S'0x0F'
p561
sS'file'
p562
S'ATmegaBOOT_168.hex'
p563
sS'path'
p564
S'bt'
p565
sS'unlock_bits'
p566
S'0x3F'
p567
ssS'upload'
p568
(dp569
S'speed'
p570
S'19200'
p571
sS'maximum_size'
p572
S'14336'
p573
sS'protocol'
p574
S'arduino'
p575
sS'disable_flushing'
p576
S'true'
p577
ssS'name'
p578
S'Arduino BT w/ ATmega168'
p579
sS'build'
p580
(dp581
S'core'
p582
S'arduino'
p583
sS'mcu'
p584
S'atmega168'
p585
sS'f_cpu'
p586
S'16000000L'
p587
sS'variant'
p588
S'eightanaloginputs'
p589
ssaa(lp590
S'lilypad328'
p591
a(dp592
S'bootloader'
p593
(dp594
S'extended_fuses'
p595
S'0x05'
p596
sS'high_fuses'
p597
S'0xDA'
p598
sS'low_fuses'
p599
S'0xFF'
p600
sS'lock_bits'
p601
S'0x0F'
p602
sS'file'
p603
S'ATmegaBOOT_168_atmega328_pro_8MHz.hex'
p604
sS'path'
p605
S'atmega'
p606
sS'unlock_bits'
p607
S'0x3F'
p608
ssS'upload'
p609
(dp610
S'speed'
p611
S'57600'
p612
sS'maximum_size'
p613
S'30720'
p614
sS'protocol'
p615
S'arduino'
p616
ssS'name'
p617
S'LilyPad Arduino w/ ATmega328'
p618
sS'build'
p619
(dp620
S'core'
p621
S'arduino'
p622
sS'mcu'
p623
S'atmega328p'
p624
sS'f_cpu'
p625
S'8000000L'
p626
sS'variant'
p627
S'standard'
p628
ssaa(lp629
S'lilypad'
p630
a(dp631
S'bootloader'
p632
(dp633
S'extended_fuses'
p634
S'0x00'
p635
sS'high_fuses'
p636
S'0xdd'
p637
sS'low_fuses'
p638
S'0xe2'
p639
sS'lock_bits'
p640
S'0x0F'
p641
sS'file'
p642
S'LilyPadBOOT_168.hex'
p643
sS'path'
p644
S'lilypad'
p645
sS'unlock_bits'
p646
S'0x3F'
p647
ssS'upload'
p648
(dp649
S'speed'
p650
S'19200'
p651
sS'maximum_size'
p652
S'14336'
p653
sS'protocol'
p654
S'arduino'
p655
ssS'name'
p656
S'LilyPad Arduino w/ ATmega168'
p657
sS'build'
p658
(dp659
S'core'
p660
S'arduino'
p661
sS'mcu'
p662
S'atmega168'
p663
sS'f_cpu'
p664
S'8000000L'
p665
sS'variant'
p666
S'standard'
p667
ssaa(lp668
S'pro5v328'
p669
a(dp670
S'bootloader'
p671
(dp672
S'extended_fuses'
p673
S'0x05'
p674
sS'high_fuses'
p675
S'0xDA'
p676
sS'low_fuses'
p677
S'0xFF'
p678
sS'lock_bits'
p679
S'0x0F'
p680
sS'file'
p681
S'ATmegaBOOT_168_atmega328.hex'
p682
sS'path'
p683
S'atmega'
p684
sS'unlock_bits'
p685
S'0x3F'
p686
ssS'upload'
p687
(dp688
S'speed'
p689
S'57600'
p690
sS'maximum_size'
p691
S'30720'
p692
sS'protocol'
p693
S'arduino'
p694
ssS'name'
p695
S'Arduino Pro or Pro Mini (5V, 16 MHz) w/ ATmega328'
p696
sS'build'
p697
(dp698
S'core'
p699
S'arduino'
p700
sS'mcu'
p701
S'atmega328p'
p702
sS'f_cpu'
p703
S'16000000L'
p704
sS'variant'
p705
S'standard'
p706
ssaa(lp707
S'pro5v'
p708
a(dp709
S'bootloader'
p710
(dp711
S'extended_fuses'
p712
S'0x00'
p713
sS'high_fuses'
p714
S'0xdd'
p715
sS'low_fuses'
p716
S'0xff'
p717
sS'lock_bits'
p718
S'0x0F'
p719
sS'file'
p720
S'ATmegaBOOT_168_diecimila.hex'
p721
sS'path'
p722
S'atmega'
p723
sS'unlock_bits'
p724
S'0x3F'
p725
ssS'upload'
p726
(dp727
S'speed'
p728
S'19200'
p729
sS'maximum_size'
p730
S'14336'
p731
sS'protocol'
p732
S'arduino'
p733
ssS'name'
p734
S'Arduino Pro or Pro Mini (5V, 16 MHz) w/ ATmega168'
p735
sS'build'
p736
(dp737
S'core'
p738
S'arduino'
p739
sS'mcu'
p740
S'atmega168'
p741
sS'f_cpu'
p742
S'16000000L'
p743
sS'variant'
p744
S'standard'
p745
ssaa(lp746
S'pro328'
p747
a(dp748
S'bootloader'
p749
(dp750
S'extended_fuses'
p751
S'0x05'
p752
sS'high_fuses'
p753
S'0xDA'
p754
sS'low_fuses'
p755
S'0xFF'
p756
sS'lock_bits'
p757
S'0x0F'
p758
sS'file'
p759
S'ATmegaBOOT_168_atmega328_pro_8MHz.hex'
p760
sS'path'
p761
S'atmega'
p762
sS'unlock_bits'
p763
S'0x3F'
p764
ssS'upload'
p765
(dp766
S'speed'
p767
S'57600'
p768
sS'maximum_size'
p769
S'30720'
p770
sS'protocol'
p771
S'arduino'
p772
ssS'name'
p773
S'Arduino Pro or Pro Mini (3.3V, 8 MHz) w/ ATmega328'
p774
sS'build'
p775
(dp776
S'core'
p777
S'arduino'
p778
sS'mcu'
p779
S'atmega328p'
p780
sS'f_cpu'
p781
S'8000000L'
p782
sS'variant'
p783
S'standard'
p784
ssaa(lp785
S'pro'
p786
a(dp787
S'bootloader'
p788
(dp789
S'extended_fuses'
p790
S'0x00'
p791
sS'high_fuses'
p792
S'0xdd'
p793
sS'low_fuses'
p794
S'0xc6'
p795
sS'lock_bits'
p796
S'0x0F'
p797
sS'file'
p798
S'ATmegaBOOT_168_pro_8MHz.hex'
p799
sS'path'
p800
S'atmega'
p801
sS'unlock_bits'
p802
S'0x3F'
p803
ssS'upload'
p804
(dp805
S'speed'
p806
S'19200'
p807
sS'maximum_size'
p808
S'14336'
p809
sS'protocol'
p810
S'arduino'
p811
ssS'name'
p812
S'Arduino Pro or Pro Mini (3.3V, 8 MHz) w/ ATmega168'
p813
sS'build'
p814
(dp815
S'core'
p816
S'arduino'
p817
sS'mcu'
p818
S'atmega168'
p819
sS'f_cpu'
p820
S'8000000L'
p821
sS'variant'
p822
S'standard'
p823
ssaa(lp824
S'atmega168'
p825
a(dp826
S'bootloader'
p827
(dp828
S'extended_fuses'
p829
S'0x00'
p830
sS'high_fuses'
p831
S'0xdd'
p832
sS'low_fuses'
p833
S'0xff'
p834
sS'lock_bits'
p835
S'0x0F'
p836
sS'file'
p837
S'ATmegaBOOT_168_ng.hex'
p838
sS'path'
p839
S'atmega'
p840
sS'unlock_bits'
p841
S'0x3F'
p842
ssS'upload'
p843
(dp844
S'speed'
p845
S'19200'
p846
sS'maximum_size'
p847
S'14336'
p848
sS'protocol'
p849
S'arduino'
p850
ssS'name'
p851
S'Arduino NG or older w/ ATmega168'
p852
sS'build'
p853
(dp854
S'core'
p855
S'arduino'
p856
sS'mcu'
p857
S'atmega168'
p858
sS'f_cpu'
p859
S'16000000L'
p860
sS'variant'
p861
S'standard'
p862
ssaa(lp863
S'atmega8'
p864
a(dp865
S'bootloader'
p866
(dp867
S'high_fuses'
p868
S'0xca'
p869
sS'low_fuses'
p870
S'0xdf'
p871
sS'lock_bits'
p872
S'0x0F'
p873
sS'file'
p874
S'ATmegaBOOT.hex'
p875
sS'path'
p876
S'atmega8'
p877
sS'unlock_bits'
p878
S'0x3F'
p879
ssS'upload'
p880
(dp881
S'speed'
p882
S'19200'
p883
sS'maximum_size'
p884
S'7168'
p885
sS'protocol'
p886
S'arduino'
p887
ssS'name'
p888
S'Arduino NG or older w/ ATmega8'
p889
sS'build'
p890
(dp891
S'core'
p892
S'arduino'
p893
sS'mcu'
p894
S'atmega8'
p895
sS'f_cpu'
p896
S'16000000L'
p897
sS'variant'
p898
S'standard'
p899
ssaatp900
Rp901
(dp902
S'default'
p903
S'uno'
p904
sbtp905
a(S'used_libs'
p906
(lp907
S'/usr/share/arduino/libraries/Servo'
p908
aS'lib/ros_lib'
p909
aS'/usr/share/arduino/hardware/arduino/cores/arduino'
p910
atp911
a(S'make'
p912
S'/usr/bin/make'
p913
tp914
a(S'arduino_libraries_dir'
p915
S'/usr/share/arduino/libraries'
p916
tp917
a(S'cc'
p918
S'/usr/bin/avr-gcc'
p919
tp920
a(S'cflags'
p921
g2
(g3
g4
(lp922
tp923
Rp924
tp925
a(S'cxxflags'
p926
g2
(g3
g4
(lp927
S'-fno-exceptions'
p928
atp929
Rp930
tp931
a(S'arduino_variants_dir'
p932
S'/usr/share/arduino/hardware/arduino/variants'
p933
tp934
a(S'stty'
p935
S'/bin/stty'
p936
tp937
a(S'version.txt'
p938
S'/usr/share/arduino/lib/version.txt'
p939
tp940
a(S'arduino_core_dir'
p941
g910
tp942
a(S'boards.txt'
p943
S'/usr/share/arduino/hardware/arduino/boards.txt'
p944
tp945
a(S'avrdude.conf'
p946
S'/usr/share/arduino/hardware/tools/avrdude.conf'
p947
tp948
a(S'deps'
p949
g2
(g3
g4
(lp950
S'.build/mega2560/src/dependencies.d'
p951
aS'.build/mega2560/arduino/dependencies.d'
p952
aS'.build/mega2560/Servo/dependencies.d'
p953
aS'.build/mega2560/ros_lib/dependencies.d'
p954
atp955
Rp956
tp957
a.